Certificate:
    Data:
        Version: 3 (0x2)
        Serial Number: 1 (0x1)
    Signature Algorithm: sha256WithRSAEncryption
        Issuer: C=CN, ST=CA, L=SanFrancisco, O=Fort-Funston, OU=www.dingd.cn, CN=Fort-Funston CA/name=EasyRSA/emailAddress=admin@dingd.cn
        Validity
            Not Before: Feb 21 03:37:44 2017 GMT
            Not After : Feb 19 03:37:44 2027 GMT
        Subject: C=CN, ST=CA, L=SanFrancisco, O=Fort-Funston, OU=www.dingd.cn, CN=server/name=EasyRSA/emailAddress=admin@dingd.cn
        Subject Public Key Info:
            Public Key Algorithm: rsaEncryption
                Public-Key: (2048 bit)
                Modulus:
                    00:c2:9a:7b:9b:89:ba:d2:a1:4a:2d:a2:af:39:c5:
                    b5:74:21:f9:4f:7f:35:2c:40:6a:42:3f:ed:3c:cd:
                    94:cb:60:9f:d0:8f:47:cc:7f:3c:80:f7:ce:a5:f8:
                    68:e3:7c:70:d5:01:9e:e9:65:ac:ee:a8:42:13:54:
                    27:c2:a4:0a:fb:34:54:10:5f:cb:40:3a:50:02:fe:
                    8f:ea:c8:6e:83:c5:c9:e6:6c:0d:61:1b:4e:25:8f:
                    6e:d5:54:65:7e:fa:ab:b2:37:03:a2:ec:f9:aa:23:
                    7e:94:33:b9:8e:aa:93:15:d2:1e:83:8f:13:d3:5d:
                    82:32:da:48:28:95:10:3a:7f:54:e2:3c:63:86:a8:
                    89:0d:ac:c4:60:60:0b:d2:5f:f6:7e:e1:97:94:3a:
                    7d:63:8d:43:7d:17:25:20:97:e4:34:a4:ce:be:e5:
                    3f:ce:28:0f:c4:ac:9d:50:43:0c:0d:5e:12:ef:48:
                    91:9c:86:4a:da:52:e5:10:92:99:99:26:67:15:57:
                    a3:40:16:6a:8b:81:52:8f:a9:5d:44:4c:d2:e0:15:
                    cb:63:98:7f:c9:20:87:d8:18:57:9b:40:1d:36:07:
                    bf:8f:6f:5b:9c:87:fb:7a:d1:a0:cf:99:a7:08:3a:
                    1f:6f:48:f7:2f:7a:2f:83:52:f2:83:d6:2c:b6:6a:
                    a5:07
                Exponent: 65537 (0x10001)
        X509v3 extensions:
            X509v3 Basic Constraints: 
                CA:FALSE
            Netscape Cert Type: 
                SSL Server
            Netscape Comment: 
                Easy-RSA Generated Server Certificate
            X509v3 Subject Key Identifier: 
                DD:0A:E4:D7:5B:58:7E:02:DB:78:C8:DA:A0:3A:AB:55:26:AF:9C:ED
            X509v3 Authority Key Identifier: 
                keyid:20:5C:38:CF:25:8D:B7:7C:07:E2:7A:5E:3C:23:D7:78:8A:ED:F0:71
                DirName:/C=CN/ST=CA/L=SanFrancisco/O=Fort-Funston/OU=www.dingd.cn/CN=Fort-Funston CA/name=EasyRSA/emailAddress=admin@dingd.cn
                serial:92:F3:B8:59:84:A3:0C:8C

            X509v3 Extended Key Usage: 
                TLS Web Server Authentication
            X509v3 Key Usage: 
                Digital Signature, Key Encipherment
    Signature Algorithm: sha256WithRSAEncryption
         5b:0d:ab:1d:da:23:74:2c:d9:62:a0:45:f2:bf:3f:b0:93:5b:
         b1:38:b3:91:bf:53:ed:6d:32:a8:f3:91:c6:3d:5d:13:d9:9c:
         79:f4:bd:8d:45:02:54:65:5a:8e:7b:fa:8c:64:4c:4d:3b:12:
         a3:f4:bb:b1:a2:8f:96:61:bb:d3:73:aa:c4:78:c6:8c:1b:d7:
         e0:f0:21:d3:f6:2d:b3:67:0d:a6:a1:04:4d:0b:52:4b:35:df:
         76:75:89:d0:98:9a:2c:cc:65:a7:e9:d9:a9:8e:78:4f:3a:60:
         ec:04:2f:3e:71:c3:7d:cd:5d:4a:50:0a:3f:2c:17:01:48:62:
         00:c0:9c:b7:46:5d:ea:f5:39:9c:91:2b:1b:4f:ef:e2:d1:9a:
         98:94:0f:47:41:ff:98:3f:ee:ee:2a:b2:d3:f0:3f:21:28:d8:
         77:3c:e4:9c:1c:13:b6:2d:b7:28:40:ec:4a:27:55:d2:37:cb:
         22:2d:a5:8d:f6:24:7a:bb:79:7f:99:73:af:12:f5:07:6f:b1:
         84:dc:1f:51:fa:73:f4:dc:b8:47:ab:0e:76:60:6e:a6:c1:54:
         0f:db:b8:0d:d4:09:9e:76:df:52:e1:16:db:c9:12:aa:ef:a5:
         32:58:26:0d:ec:01:8f:a8:91:8b:c3:4d:0a:5a:23:4e:7b:12:
         19:5b:63:5c
-----BEGIN CERTIFICATE-----
MIIFRTCCBC2gAwIBAgIBATANBgkqhkiG9w0BAQsFADCBqjELMAkGA1UEBhMCQ04x
CzAJBgNVBAgTAkNBMRUwEwYDVQQHEwxTYW5GcmFuY2lzY28xFTATBgNVBAoTDEZv
cnQtRnVuc3RvbjEVMBMGA1UECxMMd3d3LmRpbmdkLmNuMRgwFgYDVQQDEw9Gb3J0
LUZ1bnN0b24gQ0ExEDAOBgNVBCkTB0Vhc3lSU0ExHTAbBgkqhkiG9w0BCQEWDmFk
bWluQGRpbmdkLmNuMB4XDTE3MDIyMTAzMzc0NFoXDTI3MDIxOTAzMzc0NFowgaEx
CzAJBgNVBAYTAkNOMQswCQYDVQQIEwJDQTEVMBMGA1UEBxMMU2FuRnJhbmNpc2Nv
MRUwEwYDVQQKEwxGb3J0LUZ1bnN0b24xFTATBgNVBAsTDHd3dy5kaW5nZC5jbjEP
MA0GA1UEAxMGc2VydmVyMRAwDgYDVQQpEwdFYXN5UlNBMR0wGwYJKoZIhvcNAQkB
Fg5hZG1pbkBkaW5nZC5jbjCCASIwDQYJKoZIhvcNAQEBBQADggEPADCCAQoCggEB
AMKae5uJutKhSi2irznFtXQh+U9/NSxAakI/7TzNlMtgn9CPR8x/PID3zqX4aON8
cNUBnullrO6oQhNUJ8KkCvs0VBBfy0A6UAL+j+rIboPFyeZsDWEbTiWPbtVUZX76
q7I3A6Ls+aojfpQzuY6qkxXSHoOPE9NdgjLaSCiVEDp/VOI8Y4aoiQ2sxGBgC9Jf
9n7hl5Q6fWONQ30XJSCX5DSkzr7lP84oD8SsnVBDDA1eEu9IkZyGStpS5RCSmZkm
ZxVXo0AWaouBUo+pXURM0uAVy2OYf8kgh9gYV5tAHTYHv49vW5yH+3rRoM+Zpwg6
H29I9y96L4NS8oPWLLZqpQcCAwEAAaOCAXswggF3MAkGA1UdEwQCMAAwEQYJYIZI
AYb4QgEBBAQDAgZAMDQGCWCGSAGG+EIBDQQnFiVFYXN5LVJTQSBHZW5lcmF0ZWQg
U2VydmVyIENlcnRpZmljYXRlMB0GA1UdDgQWBBTdCuTXW1h+Att4yNqgOqtVJq+c
7TCB3wYDVR0jBIHXMIHUgBQgXDjPJY23fAfiel48I9d4iu3wcaGBsKSBrTCBqjEL
MAkGA1UEBhMCQ04xCzAJBgNVBAgTAkNBMRUwEwYDVQQHEwxTYW5GcmFuY2lzY28x
FTATBgNVBAoTDEZvcnQtRnVuc3RvbjEVMBMGA1UECxMMd3d3LmRpbmdkLmNuMRgw
FgYDVQQDEw9Gb3J0LUZ1bnN0b24gQ0ExEDAOBgNVBCkTB0Vhc3lSU0ExHTAbBgkq
hkiG9w0BCQEWDmFkbWluQGRpbmdkLmNuggkAkvO4WYSjDIwwEwYDVR0lBAwwCgYI
KwYBBQUHAwEwCwYDVR0PBAQDAgWgMA0GCSqGSIb3DQEBCwUAA4IBAQBbDasd2iN0
LNlioEXyvz+wk1uxOLORv1PtbTKo85HGPV0T2Zx59L2NRQJUZVqOe/qMZExNOxKj
9Luxoo+WYbvTc6rEeMaMG9fg8CHT9i2zZw2moQRNC1JLNd92dYnQmJoszGWn6dmp
jnhPOmDsBC8+ccN9zV1KUAo/LBcBSGIAwJy3Rl3q9TmckSsbT+/i0ZqYlA9HQf+Y
P+7uKrLT8D8hKNh3POScHBO2LbcoQOxKJ1XSN8siLaWN9iR6u3l/mXOvEvUHb7GE
3B9R+nP03LhHqw52YG6mwVQP27gN1Amedt9S4RbbyRKq76UyWCYN7AGPqJGLw00K
WiNOexIZW2Nc
-----END CERTIFICATE-----
