Certificate:
    Data:
        Version: 3 (0x2)
        Serial Number: 2 (0x2)
    Signature Algorithm: sha256WithRSAEncryption
        Issuer: C=CN, ST=CA, L=SanFrancisco, O=Fort-Funston, OU=www.dingd.cn, CN=Fort-Funston CA/name=EasyRSA/emailAddress=admin@dingd.cn
        Validity
            Not Before: Feb 21 03:48:14 2017 GMT
            Not After : Feb 19 03:48:14 2027 GMT
        Subject: C=CN, ST=CA, L=SanFrancisco, O=Fort-Funston, OU=www.dingd.cn, CN=client/name=EasyRSA/emailAddress=admin@dingd.cn
        Subject Public Key Info:
            Public Key Algorithm: rsaEncryption
                Public-Key: (2048 bit)
                Modulus:
                    00:cd:9a:05:ff:c5:58:cf:49:fb:6c:5b:9b:54:da:
                    b1:6b:52:48:9d:09:1e:53:a7:ca:14:03:31:ff:76:
                    0a:d7:a7:e9:7a:b1:a6:b4:ad:a4:35:a2:b5:62:ee:
                    b0:75:02:8e:6b:93:e5:96:d7:c1:49:04:82:73:0c:
                    7e:11:dc:92:25:3b:7f:0c:30:2b:4c:dd:c0:e1:fb:
                    c8:31:3c:4c:39:eb:1c:1a:8b:28:69:e0:de:3a:02:
                    8b:50:97:71:4e:ea:0a:28:a0:5f:ee:10:d2:39:be:
                    bb:0e:2a:69:ed:f9:f0:ab:6f:e9:9c:e9:fa:83:64:
                    45:22:ac:71:89:b6:70:ab:42:32:22:23:28:cf:b7:
                    b8:2c:04:f9:56:60:2c:45:66:89:c5:1b:4e:55:35:
                    e7:d6:86:92:bd:95:f0:eb:36:53:4c:95:e7:6f:b0:
                    83:e6:20:4d:9c:fc:6b:85:af:50:e4:41:8d:af:7b:
                    fb:f2:c8:af:b8:e2:84:9b:26:99:2a:ed:62:23:76:
                    78:6f:ce:de:2d:6c:08:a0:1e:de:94:50:12:f4:be:
                    20:ee:69:a5:ac:ac:c6:38:2f:13:f3:82:6f:83:62:
                    2e:f6:5c:59:d8:35:10:00:31:a8:38:39:c2:3f:0b:
                    30:dc:9a:05:c5:65:ea:2c:6d:22:67:07:a7:58:29:
                    90:4d
                Exponent: 65537 (0x10001)
        X509v3 extensions:
            X509v3 Basic Constraints: 
                CA:FALSE
            Netscape Comment: 
                Easy-RSA Generated Certificate
            X509v3 Subject Key Identifier: 
                C0:A0:80:CC:C7:DB:49:6D:20:18:68:A1:A8:28:A6:52:B4:93:ED:2E
            X509v3 Authority Key Identifier: 
                keyid:20:5C:38:CF:25:8D:B7:7C:07:E2:7A:5E:3C:23:D7:78:8A:ED:F0:71
                DirName:/C=CN/ST=CA/L=SanFrancisco/O=Fort-Funston/OU=www.dingd.cn/CN=Fort-Funston CA/name=EasyRSA/emailAddress=admin@dingd.cn
                serial:92:F3:B8:59:84:A3:0C:8C

            X509v3 Extended Key Usage: 
                TLS Web Client Authentication
            X509v3 Key Usage: 
                Digital Signature
    Signature Algorithm: sha256WithRSAEncryption
         0e:5b:ef:08:87:05:29:b8:58:a9:2e:4f:70:62:fb:a2:f0:0c:
         ef:55:7d:2a:78:77:9f:f9:74:18:b0:7c:a4:58:2a:20:d8:66:
         39:e0:5b:34:af:e1:7c:ab:97:dc:70:40:d2:bc:3a:9e:82:98:
         a0:00:ce:d8:eb:aa:70:e3:be:f6:08:13:75:43:05:bf:2f:58:
         2a:34:d5:6c:2a:b9:c2:65:47:92:ec:03:df:71:57:ba:0e:5f:
         65:a7:52:b6:bb:21:9c:ff:e9:f7:e0:fd:96:ab:1a:66:ed:c8:
         93:3a:ca:e4:8f:d9:86:21:fa:cb:68:34:46:cb:66:11:6b:0f:
         d8:ca:6b:2f:ba:6e:5d:16:1b:ab:ae:fe:e8:36:94:d2:e0:e0:
         19:08:6c:0e:f7:34:ae:8d:7e:af:0b:92:c8:bc:70:d1:ef:e5:
         16:41:90:eb:ea:eb:4a:03:d5:33:ac:63:34:e6:5f:ae:80:30:
         3d:e7:8c:24:2e:82:d0:7c:84:e0:56:e9:22:f0:ea:9a:03:0c:
         2a:41:71:74:44:84:63:18:e0:7d:60:b1:fc:44:15:83:d2:1a:
         48:8b:06:0b:fc:e8:e9:39:49:75:bb:23:cb:7f:e2:5d:13:f5:
         51:3c:f1:42:44:d6:2f:00:6d:18:38:e2:67:d5:a0:54:08:49:
         55:1f:21:a9
-----BEGIN CERTIFICATE-----
MIIFKzCCBBOgAwIBAgIBAjANBgkqhkiG9w0BAQsFADCBqjELMAkGA1UEBhMCQ04x
CzAJBgNVBAgTAkNBMRUwEwYDVQQHEwxTYW5GcmFuY2lzY28xFTATBgNVBAoTDEZv
cnQtRnVuc3RvbjEVMBMGA1UECxMMd3d3LmRpbmdkLmNuMRgwFgYDVQQDEw9Gb3J0
LUZ1bnN0b24gQ0ExEDAOBgNVBCkTB0Vhc3lSU0ExHTAbBgkqhkiG9w0BCQEWDmFk
bWluQGRpbmdkLmNuMB4XDTE3MDIyMTAzNDgxNFoXDTI3MDIxOTAzNDgxNFowgaEx
CzAJBgNVBAYTAkNOMQswCQYDVQQIEwJDQTEVMBMGA1UEBxMMU2FuRnJhbmNpc2Nv
MRUwEwYDVQQKEwxGb3J0LUZ1bnN0b24xFTATBgNVBAsTDHd3dy5kaW5nZC5jbjEP
MA0GA1UEAxMGY2xpZW50MRAwDgYDVQQpEwdFYXN5UlNBMR0wGwYJKoZIhvcNAQkB
Fg5hZG1pbkBkaW5nZC5jbjCCASIwDQYJKoZIhvcNAQEBBQADggEPADCCAQoCggEB
AM2aBf/FWM9J+2xbm1TasWtSSJ0JHlOnyhQDMf92Cten6XqxprStpDWitWLusHUC
jmuT5ZbXwUkEgnMMfhHckiU7fwwwK0zdwOH7yDE8TDnrHBqLKGng3joCi1CXcU7q
CiigX+4Q0jm+uw4qae358Ktv6Zzp+oNkRSKscYm2cKtCMiIjKM+3uCwE+VZgLEVm
icUbTlU159aGkr2V8Os2U0yV52+wg+YgTZz8a4WvUORBja97+/LIr7jihJsmmSrt
YiN2eG/O3i1sCKAe3pRQEvS+IO5ppaysxjgvE/OCb4NiLvZcWdg1EAAxqDg5wj8L
MNyaBcVl6ixtImcHp1gpkE0CAwEAAaOCAWEwggFdMAkGA1UdEwQCMAAwLQYJYIZI
AYb4QgENBCAWHkVhc3ktUlNBIEdlbmVyYXRlZCBDZXJ0aWZpY2F0ZTAdBgNVHQ4E
FgQUwKCAzMfbSW0gGGihqCimUrST7S4wgd8GA1UdIwSB1zCB1IAUIFw4zyWNt3wH
4npePCPXeIrt8HGhgbCkga0wgaoxCzAJBgNVBAYTAkNOMQswCQYDVQQIEwJDQTEV
MBMGA1UEBxMMU2FuRnJhbmNpc2NvMRUwEwYDVQQKEwxGb3J0LUZ1bnN0b24xFTAT
BgNVBAsTDHd3dy5kaW5nZC5jbjEYMBYGA1UEAxMPRm9ydC1GdW5zdG9uIENBMRAw
DgYDVQQpEwdFYXN5UlNBMR0wGwYJKoZIhvcNAQkBFg5hZG1pbkBkaW5nZC5jboIJ
AJLzuFmEowyMMBMGA1UdJQQMMAoGCCsGAQUFBwMCMAsGA1UdDwQEAwIHgDANBgkq
hkiG9w0BAQsFAAOCAQEADlvvCIcFKbhYqS5PcGL7ovAM71V9Knh3n/l0GLB8pFgq
INhmOeBbNK/hfKuX3HBA0rw6noKYoADO2OuqcOO+9ggTdUMFvy9YKjTVbCq5wmVH
kuwD33FXug5fZadStrshnP/p9+D9lqsaZu3IkzrK5I/ZhiH6y2g0RstmEWsP2Mpr
L7puXRYbq67+6DaU0uDgGQhsDvc0ro1+rwuSyLxw0e/lFkGQ6+rrSgPVM6xjNOZf
roAwPeeMJC6C0HyE4FbpIvDqmgMMKkFxdESEYxjgfWCx/EQVg9IaSIsGC/zo6TlJ
dbsjy3/iXRP1UTzxQkTWLwBtGDjiZ9WgVAhJVR8hqQ==
-----END CERTIFICATE-----
